Archive member included to satisfy reference by file (symbol)

c:/program files/microchip/xc8/v2.20/avr/bin/../lib/gcc/avr/5.4.0/avrxmega3\libgcc.a(_exit.o)
                              C:/Program Files/Microchip/xc8/v2.20/dfp/xc8/avr/lib/avrxmega3/crtattiny1616.o (exit)
c:/program files/microchip/xc8/v2.20/avr/bin/../lib/gcc/avr/5.4.0/avrxmega3\libgcc.a(_tablejump2.o)
                              build/default/production/mcc_generated_files/src/tcb0.o (__tablejump2__)
c:/program files/microchip/xc8/v2.20/avr/bin/../lib/gcc/avr/5.4.0/avrxmega3\libgcc.a(_copy_data.o)
                              build/default/production/mcc_generated_files/src/tcb0.o (__do_copy_data)
c:/program files/microchip/xc8/v2.20/avr/bin/../lib/gcc/avr/5.4.0/../../../../avr/lib/avrxmega3\libc.a(memcpy.o)
                              build/default/production/mcc_generated_files/src/nvmctrl.o (memcpy)

Allocating common symbols
Common symbol       size              file

LED_STATE           0x1               build/default/production/mcc_generated_files/src/pin_manager.o
PWM_CONTROL         0x1               build/default/production/mcc_generated_files/src/pin_manager.o
SYSTEM_STATE        0x1               build/default/production/mcc_generated_files/src/pin_manager.o
SW_Struct_t         0x1a              build/default/production/mcc_generated_files/src/pin_manager.o
LED_Struct_t        0x4               build/default/production/mcc_generated_files/src/pin_manager.o
System_State_Struc_t
                    0x12              build/default/production/mcc_generated_files/src/pin_manager.o
SYSTEM_SUB_STATE    0x1               build/default/production/mcc_generated_files/src/pin_manager.o

Discarded input sections

 .data          0x0000000000000000        0x0 C:/Program Files/Microchip/xc8/v2.20/dfp/xc8/avr/lib/avrxmega3/crtattiny1616.o
 .bss           0x0000000000000000        0x0 C:/Program Files/Microchip/xc8/v2.20/dfp/xc8/avr/lib/avrxmega3/crtattiny1616.o
 .text          0x0000000000000000        0x0 build/default/production/mcc_generated_files/src/pin_manager.o
 .data          0x0000000000000000        0x0 build/default/production/mcc_generated_files/src/pin_manager.o
 .bss           0x0000000000000000        0x0 build/default/production/mcc_generated_files/src/pin_manager.o
 .text.PORTB_PWM_DefaultInterruptHandler
                0x0000000000000000        0x2 build/default/production/mcc_generated_files/src/pin_manager.o
 .text.PORTA_PA5_DefaultInterruptHandler
                0x0000000000000000        0x2 build/default/production/mcc_generated_files/src/pin_manager.o
 .text.PORTC_SW_POWER_SetInterruptHandler
                0x0000000000000000        0xa build/default/production/mcc_generated_files/src/pin_manager.o
 .text.PORTA_PA5_SetInterruptHandler
                0x0000000000000000        0x2 build/default/production/mcc_generated_files/src/pin_manager.o
 .text.PORTC_IO_PC0_SetInterruptHandler
                0x0000000000000000        0xa build/default/production/mcc_generated_files/src/pin_manager.o
 .text.PORTC_SW_MODE_SetInterruptHandler
                0x0000000000000000        0xa build/default/production/mcc_generated_files/src/pin_manager.o
 .text.PORTB_PWM_SetInterruptHandler
                0x0000000000000000        0x2 build/default/production/mcc_generated_files/src/pin_manager.o
 .text.PORTC_IO_PC1_SetInterruptHandler
                0x0000000000000000        0xa build/default/production/mcc_generated_files/src/pin_manager.o
 .text          0x0000000000000000        0x0 build/default/production/mcc_generated_files/src/cpuint.o
 .data          0x0000000000000000        0x0 build/default/production/mcc_generated_files/src/cpuint.o
 .bss           0x0000000000000000        0x0 build/default/production/mcc_generated_files/src/cpuint.o
 .text          0x0000000000000000        0x0 build/default/production/mcc_generated_files/src/protected_io.o
 .data          0x0000000000000000        0x0 build/default/production/mcc_generated_files/src/protected_io.o
 .bss           0x0000000000000000        0x0 build/default/production/mcc_generated_files/src/protected_io.o
 .text          0x0000000000000000        0x0 build/default/production/mcc_generated_files/src/tcb0.o
 .data          0x0000000000000000        0x0 build/default/production/mcc_generated_files/src/tcb0.o
 .bss           0x0000000000000000        0x0 build/default/production/mcc_generated_files/src/tcb0.o
 .text.TCB0_SetCaptIsrCallback
                0x0000000000000000        0xa build/default/production/mcc_generated_files/src/tcb0.o
 .text.TCB0_WriteTimer
                0x0000000000000000        0xa build/default/production/mcc_generated_files/src/tcb0.o
 .text.TCB0_ReadTimer
                0x0000000000000000        0xa build/default/production/mcc_generated_files/src/tcb0.o
 .text.TCB0_EnableInterrupt
                0x0000000000000000        0xc build/default/production/mcc_generated_files/src/tcb0.o
 .text.TCB0_DisableInterrupt
                0x0000000000000000        0xc build/default/production/mcc_generated_files/src/tcb0.o
 .text.TCB0_ClearInterruptFlag
                0x0000000000000000        0xc build/default/production/mcc_generated_files/src/tcb0.o
 .text.TCB0_IsInterruptEnabled
                0x0000000000000000        0xc build/default/production/mcc_generated_files/src/tcb0.o
 .data.u16PwmParameter
                0x0000000000000000      0x320 build/default/production/mcc_generated_files/src/tcb0.o
 .bss.u8Cnt     0x0000000000000000        0x1 build/default/production/mcc_generated_files/src/tcb0.o
 .bss.u16PwmDutyStep
                0x0000000000000000        0x2 build/default/production/mcc_generated_files/src/tcb0.o
 .bss.u16PwmDutyTemp
                0x0000000000000000        0x2 build/default/production/mcc_generated_files/src/tcb0.o
 .bss.i16Cnt    0x0000000000000000        0x2 build/default/production/mcc_generated_files/src/tcb0.o
 .text          0x0000000000000000        0x0 build/default/production/mcc_generated_files/src/adc0.o
 .data          0x0000000000000000        0x0 build/default/production/mcc_generated_files/src/adc0.o
 .bss           0x0000000000000000        0x0 build/default/production/mcc_generated_files/src/adc0.o
 .text.ADC0_Enable
                0x0000000000000000        0xc build/default/production/mcc_generated_files/src/adc0.o
 .text.ADC0_Disable
                0x0000000000000000        0xc build/default/production/mcc_generated_files/src/adc0.o
 .text.ADC0_EnableAutoTrigger
                0x0000000000000000        0xc build/default/production/mcc_generated_files/src/adc0.o
 .text.ADC0_DisableAutoTrigger
                0x0000000000000000        0xc build/default/production/mcc_generated_files/src/adc0.o
 .text.ADC0_SetWindowHigh
                0x0000000000000000        0xa build/default/production/mcc_generated_files/src/adc0.o
 .text.ADC0_SetWindowLow
                0x0000000000000000        0xa build/default/production/mcc_generated_files/src/adc0.o
 .text.ADC0_SetWindowMode
                0x0000000000000000        0x6 build/default/production/mcc_generated_files/src/adc0.o
 .text.ADC0_SetWindowChannel
                0x0000000000000000        0x6 build/default/production/mcc_generated_files/src/adc0.o
 .text.ADC0_IsConversionDone
                0x0000000000000000        0x8 build/default/production/mcc_generated_files/src/adc0.o
 .text.ADC0_GetConversionResult
                0x0000000000000000        0xa build/default/production/mcc_generated_files/src/adc0.o
 .text.ADC0_GetWindowResult
                0x0000000000000000       0x10 build/default/production/mcc_generated_files/src/adc0.o
 .text.ADC0_GetConversion
                0x0000000000000000       0x22 build/default/production/mcc_generated_files/src/adc0.o
 .text.ADC0_GetResolution
                0x0000000000000000       0x10 build/default/production/mcc_generated_files/src/adc0.o
 .text.ADC0_RegisterWindowCallback
                0x0000000000000000        0xa build/default/production/mcc_generated_files/src/adc0.o
 .text          0x0000000000000000        0x0 build/default/production/mcc_generated_files/src/nvmctrl.o
 .data          0x0000000000000000        0x0 build/default/production/mcc_generated_files/src/nvmctrl.o
 .bss           0x0000000000000000        0x0 build/default/production/mcc_generated_files/src/nvmctrl.o
 .text.FLASH_ReadEepromBlock
                0x0000000000000000        0xc build/default/production/mcc_generated_files/src/nvmctrl.o
 .text.FLASH_WriteEepromBlock
                0x0000000000000000       0x64 build/default/production/mcc_generated_files/src/nvmctrl.o
 .text.FLASH_IsEepromReady
                0x0000000000000000        0xa build/default/production/mcc_generated_files/src/nvmctrl.o
 .text.FLASH_ReadFlashByte
                0x0000000000000000        0x8 build/default/production/mcc_generated_files/src/nvmctrl.o
 .text.FLASH_WriteFlashByte
                0x0000000000000000       0x2c build/default/production/mcc_generated_files/src/nvmctrl.o
 .text.FLASH_EraseFlashPage
                0x0000000000000000       0x18 build/default/production/mcc_generated_files/src/nvmctrl.o
 .text.FLASH_WriteFlashPage
                0x0000000000000000       0x22 build/default/production/mcc_generated_files/src/nvmctrl.o
 .text.FLASH_WriteFlashBlock
                0x0000000000000000       0x92 build/default/production/mcc_generated_files/src/nvmctrl.o
 .text.FLASH_WriteFlashStream
                0x0000000000000000       0x24 build/default/production/mcc_generated_files/src/nvmctrl.o
 .text          0x0000000000000000        0x0 build/default/production/mcc_generated_files/device_config.o
 .data          0x0000000000000000        0x0 build/default/production/mcc_generated_files/device_config.o
 .bss           0x0000000000000000        0x0 build/default/production/mcc_generated_files/device_config.o
 .text          0x0000000000000000        0x0 build/default/production/mcc_generated_files/mcc.o
 .data          0x0000000000000000        0x0 build/default/production/mcc_generated_files/mcc.o
 .bss           0x0000000000000000        0x0 build/default/production/mcc_generated_files/mcc.o
 .text          0x0000000000000000        0x0 dist/default/production/__pa_temp_29824/main.o
 .data          0x0000000000000000        0x0 dist/default/production/__pa_temp_29824/main.o
 .bss           0x0000000000000000        0x0 dist/default/production/__pa_temp_29824/main.o
 .text          0x0000000000000000        0x0 build/default/production/mcc_generated_files/src/rtc.o
 .data          0x0000000000000000        0x0 build/default/production/mcc_generated_files/src/rtc.o
 .bss           0x0000000000000000        0x0 build/default/production/mcc_generated_files/src/rtc.o
 .text.RTC_SetOVFIsrCallback
                0x0000000000000000        0xa build/default/production/mcc_generated_files/src/rtc.o
 .text.RTC_SetCMPIsrCallback
                0x0000000000000000        0xa build/default/production/mcc_generated_files/src/rtc.o
 .text.RTC_WriteCounter
                0x0000000000000000       0x12 build/default/production/mcc_generated_files/src/rtc.o
 .text.RTC_ReadCounter
                0x0000000000000000        0xa build/default/production/mcc_generated_files/src/rtc.o
 .text.RTC_WritePeroid
                0x0000000000000000       0x12 build/default/production/mcc_generated_files/src/rtc.o
 .text.RTC_ReadPeriod
                0x0000000000000000        0xa build/default/production/mcc_generated_files/src/rtc.o
 .text.RTC_EnableCMPInterrupt
                0x0000000000000000        0xc build/default/production/mcc_generated_files/src/rtc.o
 .text.RTC_DisableCMPInterrupt
                0x0000000000000000        0xc build/default/production/mcc_generated_files/src/rtc.o
 .text.RTC_EnablePITInterrupt
                0x0000000000000000        0xc build/default/production/mcc_generated_files/src/rtc.o
 .text.RTC_EnableOVFInterrupt
                0x0000000000000000        0x4 build/default/production/mcc_generated_files/src/rtc.o
 .text.RTC_DisablePITInterrupt
                0x0000000000000000        0xc build/default/production/mcc_generated_files/src/rtc.o
 .text.RTC_DisableOVFInterrupt
                0x0000000000000000        0x4 build/default/production/mcc_generated_files/src/rtc.o
 .text.RTC_ClearOVFInterruptFlag
                0x0000000000000000        0xc build/default/production/mcc_generated_files/src/rtc.o
 .text.RTC_IsOVFInterruptEnabled
                0x0000000000000000        0xc build/default/production/mcc_generated_files/src/rtc.o
 .text          0x0000000000000000        0x0 c:/program files/microchip/xc8/v2.20/avr/bin/../lib/gcc/avr/5.4.0/avrxmega3\libgcc.a(_exit.o)
 .data          0x0000000000000000        0x0 c:/program files/microchip/xc8/v2.20/avr/bin/../lib/gcc/avr/5.4.0/avrxmega3\libgcc.a(_exit.o)
 .bss           0x0000000000000000        0x0 c:/program files/microchip/xc8/v2.20/avr/bin/../lib/gcc/avr/5.4.0/avrxmega3\libgcc.a(_exit.o)
 .text.libgcc.mul
                0x0000000000000000        0x0 c:/program files/microchip/xc8/v2.20/avr/bin/../lib/gcc/avr/5.4.0/avrxmega3\libgcc.a(_exit.o)
 .text.libgcc.div
                0x0000000000000000        0x0 c:/program files/microchip/xc8/v2.20/avr/bin/../lib/gcc/avr/5.4.0/avrxmega3\libgcc.a(_exit.o)
 .text.libgcc   0x0000000000000000        0x0 c:/program files/microchip/xc8/v2.20/avr/bin/../lib/gcc/avr/5.4.0/avrxmega3\libgcc.a(_exit.o)
 .text.libgcc.prologue
                0x0000000000000000        0x0 c:/program files/microchip/xc8/v2.20/avr/bin/../lib/gcc/avr/5.4.0/avrxmega3\libgcc.a(_exit.o)
 .text.libgcc.builtins
                0x0000000000000000        0x0 c:/program files/microchip/xc8/v2.20/avr/bin/../lib/gcc/avr/5.4.0/avrxmega3\libgcc.a(_exit.o)
 .text.libgcc.fmul
                0x0000000000000000        0x0 c:/program files/microchip/xc8/v2.20/avr/bin/../lib/gcc/avr/5.4.0/avrxmega3\libgcc.a(_exit.o)
 .text.libgcc.fixed
                0x0000000000000000        0x0 c:/program files/microchip/xc8/v2.20/avr/bin/../lib/gcc/avr/5.4.0/avrxmega3\libgcc.a(_exit.o)
 .text          0x0000000000000000        0x0 c:/program files/microchip/xc8/v2.20/avr/bin/../lib/gcc/avr/5.4.0/avrxmega3\libgcc.a(_tablejump2.o)
 .data          0x0000000000000000        0x0 c:/program files/microchip/xc8/v2.20/avr/bin/../lib/gcc/avr/5.4.0/avrxmega3\libgcc.a(_tablejump2.o)
 .bss           0x0000000000000000        0x0 c:/program files/microchip/xc8/v2.20/avr/bin/../lib/gcc/avr/5.4.0/avrxmega3\libgcc.a(_tablejump2.o)
 .text.libgcc.mul
                0x0000000000000000        0x0 c:/program files/microchip/xc8/v2.20/avr/bin/../lib/gcc/avr/5.4.0/avrxmega3\libgcc.a(_tablejump2.o)
 .text.libgcc.div
                0x0000000000000000        0x0 c:/program files/microchip/xc8/v2.20/avr/bin/../lib/gcc/avr/5.4.0/avrxmega3\libgcc.a(_tablejump2.o)
 .text.libgcc.prologue
                0x0000000000000000        0x0 c:/program files/microchip/xc8/v2.20/avr/bin/../lib/gcc/avr/5.4.0/avrxmega3\libgcc.a(_tablejump2.o)
 .text.libgcc.builtins
                0x0000000000000000        0x0 c:/program files/microchip/xc8/v2.20/avr/bin/../lib/gcc/avr/5.4.0/avrxmega3\libgcc.a(_tablejump2.o)
 .text.libgcc.fmul
                0x0000000000000000        0x0 c:/program files/microchip/xc8/v2.20/avr/bin/../lib/gcc/avr/5.4.0/avrxmega3\libgcc.a(_tablejump2.o)
 .text.libgcc.fixed
                0x0000000000000000        0x0 c:/program files/microchip/xc8/v2.20/avr/bin/../lib/gcc/avr/5.4.0/avrxmega3\libgcc.a(_tablejump2.o)
 .text          0x0000000000000000        0x0 c:/program files/microchip/xc8/v2.20/avr/bin/../lib/gcc/avr/5.4.0/avrxmega3\libgcc.a(_copy_data.o)
 .data          0x0000000000000000        0x0 c:/program files/microchip/xc8/v2.20/avr/bin/../lib/gcc/avr/5.4.0/avrxmega3\libgcc.a(_copy_data.o)
 .bss           0x0000000000000000        0x0 c:/program files/microchip/xc8/v2.20/avr/bin/../lib/gcc/avr/5.4.0/avrxmega3\libgcc.a(_copy_data.o)
 .text.libgcc.mul
                0x0000000000000000        0x0 c:/program files/microchip/xc8/v2.20/avr/bin/../lib/gcc/avr/5.4.0/avrxmega3\libgcc.a(_copy_data.o)
 .text.libgcc.div
                0x0000000000000000        0x0 c:/program files/microchip/xc8/v2.20/avr/bin/../lib/gcc/avr/5.4.0/avrxmega3\libgcc.a(_copy_data.o)
 .text.libgcc   0x0000000000000000        0x0 c:/program files/microchip/xc8/v2.20/avr/bin/../lib/gcc/avr/5.4.0/avrxmega3\libgcc.a(_copy_data.o)
 .text.libgcc.prologue
                0x0000000000000000        0x0 c:/program files/microchip/xc8/v2.20/avr/bin/../lib/gcc/avr/5.4.0/avrxmega3\libgcc.a(_copy_data.o)
 .text.libgcc.builtins
                0x0000000000000000        0x0 c:/program files/microchip/xc8/v2.20/avr/bin/../lib/gcc/avr/5.4.0/avrxmega3\libgcc.a(_copy_data.o)
 .text.libgcc.fmul
                0x0000000000000000        0x0 c:/program files/microchip/xc8/v2.20/avr/bin/../lib/gcc/avr/5.4.0/avrxmega3\libgcc.a(_copy_data.o)
 .text.libgcc.fixed
                0x0000000000000000        0x0 c:/program files/microchip/xc8/v2.20/avr/bin/../lib/gcc/avr/5.4.0/avrxmega3\libgcc.a(_copy_data.o)
 .text          0x0000000000000000        0x0 c:/program files/microchip/xc8/v2.20/avr/bin/../lib/gcc/avr/5.4.0/../../../../avr/lib/avrxmega3\libc.a(memcpy.o)
 .data          0x0000000000000000        0x0 c:/program files/microchip/xc8/v2.20/avr/bin/../lib/gcc/avr/5.4.0/../../../../avr/lib/avrxmega3\libc.a(memcpy.o)
 .bss           0x0000000000000000        0x0 c:/program files/microchip/xc8/v2.20/avr/bin/../lib/gcc/avr/5.4.0/../../../../avr/lib/avrxmega3\libc.a(memcpy.o)
 .text.avrlibc  0x0000000000000000       0x12 c:/program files/microchip/xc8/v2.20/avr/bin/../lib/gcc/avr/5.4.0/../../../../avr/lib/avrxmega3\libc.a(memcpy.o)

Memory Configuration

Name             Origin             Length             Attributes
text             0x0000000000000000 0x0000000000004000 xr
data             0x0000000000803800 0x0000000000000800 rw !x
eeprom           0x0000000000810000 0x0000000000000100 rw !x
fuse             0x0000000000820000 0x000000000000000a rw !x
lock             0x0000000000830000 0x0000000000000400 rw !x
signature        0x0000000000840000 0x0000000000000400 rw !x
user_signatures  0x0000000000850000 0x0000000000000400 rw !x
*default*        0x0000000000000000 0xffffffffffffffff

Linker script and memory map

Address of section .data set to 0x803800
                0x0000000000008000                __RODATA_PM_OFFSET__ = 0x8000
LOAD C:/Program Files/Microchip/xc8/v2.20/dfp/xc8/avr/lib/avrxmega3/crtattiny1616.o
                0x0000000000000001                __MPLAB_BUILD = 0x1
LOAD build/default/production/mcc_generated_files/src/pin_manager.o
LOAD build/default/production/mcc_generated_files/src/cpuint.o
LOAD build/default/production/mcc_generated_files/src/protected_io.o
LOAD build/default/production/mcc_generated_files/src/tcb0.o
LOAD build/default/production/mcc_generated_files/src/adc0.o
LOAD build/default/production/mcc_generated_files/src/nvmctrl.o
LOAD build/default/production/mcc_generated_files/device_config.o
LOAD build/default/production/mcc_generated_files/mcc.o
LOAD dist/default/production/__pa_temp_29824/main.o
LOAD build/default/production/mcc_generated_files/src/rtc.o
START GROUP
LOAD c:/program files/microchip/xc8/v2.20/avr/bin/../lib/gcc/avr/5.4.0/../../../../avr/lib/avrxmega3\libm.a
END GROUP
START GROUP
LOAD c:/program files/microchip/xc8/v2.20/avr/bin/../lib/gcc/avr/5.4.0/avrxmega3\libgcc.a
LOAD c:/program files/microchip/xc8/v2.20/avr/bin/../lib/gcc/avr/5.4.0/../../../../avr/lib/avrxmega3\libm.a
LOAD c:/program files/microchip/xc8/v2.20/avr/bin/../lib/gcc/avr/5.4.0/../../../../avr/lib/avrxmega3\libc.a
LOAD C:/Program Files/Microchip/xc8/v2.20/dfp/xc8/avr/lib/avrxmega3\libattiny1616.a
END GROUP
                [0x0000000000000000]                __TEXT_REGION_ORIGIN__ = DEFINED (__TEXT_REGION_ORIGIN__)?__TEXT_REGION_ORIGIN__:0x0
                [0x0000000000803800]                __DATA_REGION_ORIGIN__ = DEFINED (__DATA_REGION_ORIGIN__)?__DATA_REGION_ORIGIN__:0x802000
                [0x0000000000004000]                __TEXT_REGION_LENGTH__ = DEFINED (__TEXT_REGION_LENGTH__)?__TEXT_REGION_LENGTH__:0x100000
                [0x0000000000000800]                __DATA_REGION_LENGTH__ = DEFINED (__DATA_REGION_LENGTH__)?__DATA_REGION_LENGTH__:0xffa0
                [0x0000000000000100]                __EEPROM_REGION_LENGTH__ = DEFINED (__EEPROM_REGION_LENGTH__)?__EEPROM_REGION_LENGTH__:0x10000
                [0x000000000000000a]                __FUSE_REGION_LENGTH__ = DEFINED (__FUSE_REGION_LENGTH__)?__FUSE_REGION_LENGTH__:0x400
                0x0000000000000400                __LOCK_REGION_LENGTH__ = DEFINED (__LOCK_REGION_LENGTH__)?__LOCK_REGION_LENGTH__:0x400
                0x0000000000000400                __SIGNATURE_REGION_LENGTH__ = DEFINED (__SIGNATURE_REGION_LENGTH__)?__SIGNATURE_REGION_LENGTH__:0x400
                0x0000000000000400                __USER_SIGNATURE_REGION_LENGTH__ = DEFINED (__USER_SIGNATURE_REGION_LENGTH__)?__USER_SIGNATURE_REGION_LENGTH__:0x400
                0x0000000000008000                __RODATA_PM_OFFSET__ = DEFINED (__RODATA_PM_OFFSET__)?__RODATA_PM_OFFSET__:0x8000

.hash
 *(.hash)

.dynsym
 *(.dynsym)

.dynstr
 *(.dynstr)

.gnu.version
 *(.gnu.version)

.gnu.version_d
 *(.gnu.version_d)

.gnu.version_r
 *(.gnu.version_r)

.rel.init
 *(.rel.init)

.rela.init
 *(.rela.init)

.rel.text
 *(.rel.text)
 *(.rel.text.*)
 *(.rel.gnu.linkonce.t*)

.rela.text
 *(.rela.text)
 *(.rela.text.*)
 *(.rela.gnu.linkonce.t*)

.rel.fini
 *(.rel.fini)

.rela.fini
 *(.rela.fini)

.rel.rodata
 *(.rel.rodata)
 *(.rel.rodata.*)
 *(.rel.gnu.linkonce.r*)

.rela.rodata
 *(.rela.rodata)
 *(.rela.rodata.*)
 *(.rela.gnu.linkonce.r*)

.rel.data
 *(.rel.data)
 *(.rel.data.*)
 *(.rel.gnu.linkonce.d*)

.rela.data
 *(.rela.data)
 *(.rela.data.*)
 *(.rela.gnu.linkonce.d*)

.rel.ctors
 *(.rel.ctors)

.rela.ctors
 *(.rela.ctors)

.rel.dtors
 *(.rel.dtors)

.rela.dtors
 *(.rela.dtors)

.rel.got
 *(.rel.got)

.rela.got
 *(.rela.got)

.rel.bss
 *(.rel.bss)

.rela.bss
 *(.rela.bss)

.rel.plt
 *(.rel.plt)

.rela.plt
 *(.rela.plt)

.text           0x0000000000000000       0xfa
 *(.vectors)
 .vectors       0x0000000000000000       0x7c C:/Program Files/Microchip/xc8/v2.20/dfp/xc8/avr/lib/avrxmega3/crtattiny1616.o
                0x0000000000000000                __vector_default
                0x0000000000000000                __vectors
 *(.vectors)
 *(.progmem.gcc*)
 .progmem.gcc_sw_table.__vector_13
                0x000000000000007c       0x18 build/default/production/mcc_generated_files/src/tcb0.o
 *(.dinit)
 .dinit         0x0000000000000094       0x11 data_init
                0x00000000000000a6                . = ALIGN (0x2)
 *fill*         0x00000000000000a5        0x1 
                0x00000000000000a6                __trampolines_start = .
 *(.trampolines)
 .trampolines   0x00000000000000a6        0x0 linker stubs
 *(.trampolines*)
                0x00000000000000a6                __trampolines_end = .
 *libprintf_flt.a:*(.progmem.data)
 *libc.a:*(.progmem.data)
                0x00000000000000a6                . = ALIGN (0x2)
 *(.jumptables)
 *(.jumptables*)
 *(.lowtext)
 *(.lowtext*)
                0x00000000000000a6                __ctors_start = .
 *(.ctors)
                0x00000000000000a6                __ctors_end = .
                0x00000000000000a6                __dtors_start = .
 *(.dtors)
                0x00000000000000a6                __dtors_end = .
 SORT(*)(.ctors)
 SORT(*)(.dtors)
 *(.init0)
 .init0         0x00000000000000a6        0x0 C:/Program Files/Microchip/xc8/v2.20/dfp/xc8/avr/lib/avrxmega3/crtattiny1616.o
                0x00000000000000a6                __init
 *(.init0)
 *(.init1)
 *(.init1)
 *(.init2)
 .init2         0x00000000000000a6        0xc C:/Program Files/Microchip/xc8/v2.20/dfp/xc8/avr/lib/avrxmega3/crtattiny1616.o
 *(.init2)
 *(.init3)
 *(.init3)
 *(.init4)
 .init4         0x00000000000000b2       0x3c c:/program files/microchip/xc8/v2.20/avr/bin/../lib/gcc/avr/5.4.0/avrxmega3\libgcc.a(_copy_data.o)
                0x00000000000000b2                __do_copy_data
                0x00000000000000e0                __do_clear_bss
 *(.init4)
 *(.init5)
 *(.init5)
 *(.init6)
 *(.init6)
 *(.init7)
 *(.init7)
 *(.init8)
 *(.init8)
 *(.init9)
 .init9         0x00000000000000ee        0x8 C:/Program Files/Microchip/xc8/v2.20/dfp/xc8/avr/lib/avrxmega3/crtattiny1616.o
 *(.init9)
                0x00000000000000f6                . = ALIGN (0x2)
 *(.fini9)
 .fini9         0x00000000000000f6        0x0 c:/program files/microchip/xc8/v2.20/avr/bin/../lib/gcc/avr/5.4.0/avrxmega3\libgcc.a(_exit.o)
                0x00000000000000f6                _exit
                0x00000000000000f6                exit
 *(.fini9)
 *(.fini8)
 *(.fini8)
 *(.fini7)
 *(.fini7)
 *(.fini6)
 *(.fini6)
 *(.fini5)
 *(.fini5)
 *(.fini4)
 *(.fini4)
 *(.fini3)
 *(.fini3)
 *(.fini2)
 *(.fini2)
 *(.fini1)
 *(.fini1)
 *(.fini0)
 .fini0         0x00000000000000f6        0x4 c:/program files/microchip/xc8/v2.20/avr/bin/../lib/gcc/avr/5.4.0/avrxmega3\libgcc.a(_exit.o)
 *(.fini0)
                0x00000000000000fa                _etext = .

.data           0x0000000000803800        0x0 load address 0x00000000000000fa
                [!provide]                        PROVIDE (__data_start, .)
 *(.gnu.linkonce.d*)
                0x0000000000803800                . = ALIGN (0x2)
                0x0000000000803800                _edata = .
                [!provide]                        PROVIDE (__data_end, .)

.bss            0x0000000000803800       0x34
                [!provide]                        PROVIDE (__bss_start, .)
 *(COMMON)
 COMMON         0x0000000000803800       0x34 build/default/production/mcc_generated_files/src/pin_manager.o
                0x0000000000803800                LED_STATE
                0x0000000000803801                PWM_CONTROL
                0x0000000000803802                SYSTEM_STATE
                0x0000000000803803                SW_Struct_t
                0x000000000080381d                LED_Struct_t
                0x0000000000803821                System_State_Struc_t
                0x0000000000803833                SYSTEM_SUB_STATE
                [!provide]                        PROVIDE (__bss_end, .)
                0x00000000000000fa                __data_load_start = LOADADDR (.data)
                0x00000000000000fa                __data_load_end = (__data_load_start + SIZEOF (.data))

.noinit         0x0000000000803834        0x0
                [!provide]                        PROVIDE (__noinit_start, .)
 *(.noinit*)
                [!provide]                        PROVIDE (__noinit_end, .)
                0x0000000000803834                _end = .

.eeprom         0x0000000000810000        0x0
 *(.eeprom*)
                0x0000000000810000                __eeprom_end = .

.fuse           0x0000000000820000        0x9
 *(.fuse)
 .fuse          0x0000000000820000        0x9 build/default/production/mcc_generated_files/device_config.o
                0x0000000000820000                __fuse
 *(.lfuse)
 *(.hfuse)
 *(.efuse)

.lock
 *(.lock*)

.signature
 *(.signature*)

.user_signatures
 *(.user_signatures*)

.stab
 *(.stab)

.stabstr
 *(.stabstr)

.stab.excl
 *(.stab.excl)

.stab.exclstr
 *(.stab.exclstr)

.stab.index
 *(.stab.index)

.stab.indexstr
 *(.stab.indexstr)

.comment        0x0000000000000000       0x2f
 *(.comment)
 .comment       0x0000000000000000       0x2f build/default/production/mcc_generated_files/src/pin_manager.o
                                         0x30 (size before relaxing)
 .comment       0x000000000000002f       0x30 build/default/production/mcc_generated_files/src/cpuint.o
 .comment       0x000000000000002f       0x30 build/default/production/mcc_generated_files/src/tcb0.o
 .comment       0x000000000000002f       0x30 build/default/production/mcc_generated_files/src/adc0.o
 .comment       0x000000000000002f       0x30 build/default/production/mcc_generated_files/src/nvmctrl.o
 .comment       0x000000000000002f       0x30 build/default/production/mcc_generated_files/device_config.o
 .comment       0x000000000000002f       0x30 build/default/production/mcc_generated_files/mcc.o
 .comment       0x000000000000002f       0x30 dist/default/production/__pa_temp_29824/main.o
 .comment       0x000000000000002f       0x30 build/default/production/mcc_generated_files/src/rtc.o

.note.gnu.build-id
 *(.note.gnu.build-id)

.debug
 *(.debug)

.line
 *(.line)

.debug_srcinfo
 *(.debug_srcinfo)

.debug_sfnames
 *(.debug_sfnames)

.debug_aranges  0x0000000000000000      0x358
 *(.debug_aranges)
 .debug_aranges
                0x0000000000000000       0x70 build/default/production/mcc_generated_files/src/pin_manager.o
 .debug_aranges
                0x0000000000000070       0x20 build/default/production/mcc_generated_files/src/cpuint.o
 .debug_aranges
                0x0000000000000090       0x20 build/default/production/mcc_generated_files/src/protected_io.o
 .debug_aranges
                0x00000000000000b0       0x60 build/default/production/mcc_generated_files/src/tcb0.o
 .debug_aranges
                0x0000000000000110       0xa8 build/default/production/mcc_generated_files/src/adc0.o
 .debug_aranges
                0x00000000000001b8       0x88 build/default/production/mcc_generated_files/src/nvmctrl.o
 .debug_aranges
                0x0000000000000240       0x18 build/default/production/mcc_generated_files/device_config.o
 .debug_aranges
                0x0000000000000258       0x50 build/default/production/mcc_generated_files/mcc.o
 .debug_aranges
                0x00000000000002a8       0x20 dist/default/production/__pa_temp_29824/main.o
 .debug_aranges
                0x00000000000002c8       0x90 build/default/production/mcc_generated_files/src/rtc.o

.debug_pubnames
 *(.debug_pubnames)

.debug_info     0x0000000000000000     0x8a36
 *(.debug_info .gnu.linkonce.wi.*)
 .debug_info    0x0000000000000000     0x19ed C:/Program Files/Microchip/xc8/v2.20/dfp/xc8/avr/lib/avrxmega3/crtattiny1616.o
 .debug_info    0x00000000000019ed     0x1085 build/default/production/mcc_generated_files/src/pin_manager.o
 .debug_info    0x0000000000002a72      0x3b2 build/default/production/mcc_generated_files/src/cpuint.o
 .debug_info    0x0000000000002e24       0x7c build/default/production/mcc_generated_files/src/protected_io.o
 .debug_info    0x0000000000002ea0      0xfd8 build/default/production/mcc_generated_files/src/tcb0.o
 .debug_info    0x0000000000003e78     0x11ce build/default/production/mcc_generated_files/src/adc0.o
 .debug_info    0x0000000000005046      0xb75 build/default/production/mcc_generated_files/src/nvmctrl.o
 .debug_info    0x0000000000005bbb      0x7e6 build/default/production/mcc_generated_files/device_config.o
 .debug_info    0x00000000000063a1      0xf78 build/default/production/mcc_generated_files/mcc.o
 .debug_info    0x0000000000007319      0xf3b dist/default/production/__pa_temp_29824/main.o
 .debug_info    0x0000000000008254      0x7e2 build/default/production/mcc_generated_files/src/rtc.o

.debug_abbrev   0x0000000000000000     0x27f6
 *(.debug_abbrev)
 .debug_abbrev  0x0000000000000000     0x1888 C:/Program Files/Microchip/xc8/v2.20/dfp/xc8/avr/lib/avrxmega3/crtattiny1616.o
 .debug_abbrev  0x0000000000001888      0x1fa build/default/production/mcc_generated_files/src/pin_manager.o
 .debug_abbrev  0x0000000000001a82       0xfa build/default/production/mcc_generated_files/src/cpuint.o
 .debug_abbrev  0x0000000000001b7c       0x14 build/default/production/mcc_generated_files/src/protected_io.o
 .debug_abbrev  0x0000000000001b90      0x21b build/default/production/mcc_generated_files/src/tcb0.o
 .debug_abbrev  0x0000000000001dab      0x24c build/default/production/mcc_generated_files/src/adc0.o
 .debug_abbrev  0x0000000000001ff7      0x270 build/default/production/mcc_generated_files/src/nvmctrl.o
 .debug_abbrev  0x0000000000002267       0x97 build/default/production/mcc_generated_files/device_config.o
 .debug_abbrev  0x00000000000022fe      0x1b2 build/default/production/mcc_generated_files/mcc.o
 .debug_abbrev  0x00000000000024b0      0x1e2 dist/default/production/__pa_temp_29824/main.o
 .debug_abbrev  0x0000000000002692      0x164 build/default/production/mcc_generated_files/src/rtc.o

.debug_line     0x0000000000000000     0x1dbb
 *(.debug_line .debug_line.* .debug_line_end)
 .debug_line    0x0000000000000000      0x151 C:/Program Files/Microchip/xc8/v2.20/dfp/xc8/avr/lib/avrxmega3/crtattiny1616.o
 .debug_line    0x0000000000000151      0x373 build/default/production/mcc_generated_files/src/pin_manager.o
 .debug_line    0x00000000000004c4      0x168 build/default/production/mcc_generated_files/src/cpuint.o
 .debug_line    0x000000000000062c       0x66 build/default/production/mcc_generated_files/src/protected_io.o
 .debug_line    0x0000000000000692      0x4df build/default/production/mcc_generated_files/src/tcb0.o
 .debug_line    0x0000000000000b71      0x378 build/default/production/mcc_generated_files/src/adc0.o
 .debug_line    0x0000000000000ee9      0x44d build/default/production/mcc_generated_files/src/nvmctrl.o
 .debug_line    0x0000000000001336       0xcd build/default/production/mcc_generated_files/device_config.o
 .debug_line    0x0000000000001403      0x298 build/default/production/mcc_generated_files/mcc.o
 .debug_line    0x000000000000169b      0x421 dist/default/production/__pa_temp_29824/main.o
 .debug_line    0x0000000000001abc      0x2ff build/default/production/mcc_generated_files/src/rtc.o

.debug_frame    0x0000000000000000      0x7d0
 *(.debug_frame)
 .debug_frame   0x0000000000000000      0x158 build/default/production/mcc_generated_files/src/pin_manager.o
 .debug_frame   0x0000000000000158       0x24 build/default/production/mcc_generated_files/src/cpuint.o
 .debug_frame   0x000000000000017c       0xec build/default/production/mcc_generated_files/src/tcb0.o
 .debug_frame   0x0000000000000268      0x1a0 build/default/production/mcc_generated_files/src/adc0.o
 .debug_frame   0x0000000000000408      0x15c build/default/production/mcc_generated_files/src/nvmctrl.o
 .debug_frame   0x0000000000000564       0x94 build/default/production/mcc_generated_files/mcc.o
 .debug_frame   0x00000000000005f8       0x24 dist/default/production/__pa_temp_29824/main.o
 .debug_frame   0x000000000000061c      0x1b4 build/default/production/mcc_generated_files/src/rtc.o

.debug_str      0x0000000000000000      0xc7b
 *(.debug_str)
 .debug_str     0x0000000000000000      0xacf C:/Program Files/Microchip/xc8/v2.20/dfp/xc8/avr/lib/avrxmega3/crtattiny1616.o
 .debug_str     0x0000000000000acf       0x25 build/default/production/mcc_generated_files/src/pin_manager.o
 .debug_str     0x0000000000000af4       0x13 build/default/production/mcc_generated_files/src/cpuint.o
 .debug_str     0x0000000000000b07       0x1e build/default/production/mcc_generated_files/src/tcb0.o
 .debug_str     0x0000000000000b25        0x8 build/default/production/mcc_generated_files/src/adc0.o
 .debug_str     0x0000000000000b2d       0x43 build/default/production/mcc_generated_files/src/nvmctrl.o
 .debug_str     0x0000000000000b70        0x0 build/default/production/mcc_generated_files/device_config.o
 .debug_str     0x0000000000000b70       0x92 build/default/production/mcc_generated_files/mcc.o
 .debug_str     0x0000000000000c02       0x70 dist/default/production/__pa_temp_29824/main.o
 .debug_str     0x0000000000000c72        0x9 build/default/production/mcc_generated_files/src/rtc.o

.debug_loc      0x0000000000000000      0x918
 *(.debug_loc)
 .debug_loc     0x0000000000000000       0x36 build/default/production/mcc_generated_files/src/pin_manager.o
 .debug_loc     0x0000000000000036       0x2a build/default/production/mcc_generated_files/src/cpuint.o
 .debug_loc     0x0000000000000060       0xa4 build/default/production/mcc_generated_files/src/adc0.o
 .debug_loc     0x0000000000000104      0x770 build/default/production/mcc_generated_files/src/nvmctrl.o
 .debug_loc     0x0000000000000874       0x52 build/default/production/mcc_generated_files/mcc.o
 .debug_loc     0x00000000000008c6       0x52 dist/default/production/__pa_temp_29824/main.o

.debug_macinfo
 *(.debug_macinfo)

.debug_weaknames
 *(.debug_weaknames)

.debug_funcnames
 *(.debug_funcnames)

.debug_typenames
 *(.debug_typenames)

.debug_varnames
 *(.debug_varnames)

.debug_pubtypes
 *(.debug_pubtypes)

.debug_ranges   0x0000000000000000      0x2a0
 *(.debug_ranges)
 .debug_ranges  0x0000000000000000       0x60 build/default/production/mcc_generated_files/src/pin_manager.o
 .debug_ranges  0x0000000000000060       0x10 build/default/production/mcc_generated_files/src/cpuint.o
 .debug_ranges  0x0000000000000070       0x50 build/default/production/mcc_generated_files/src/tcb0.o
 .debug_ranges  0x00000000000000c0       0x98 build/default/production/mcc_generated_files/src/adc0.o
 .debug_ranges  0x0000000000000158       0x78 build/default/production/mcc_generated_files/src/nvmctrl.o
 .debug_ranges  0x00000000000001d0       0x40 build/default/production/mcc_generated_files/mcc.o
 .debug_ranges  0x0000000000000210       0x10 dist/default/production/__pa_temp_29824/main.o
 .debug_ranges  0x0000000000000220       0x80 build/default/production/mcc_generated_files/src/rtc.o

.debug_macro
 *(.debug_macro)
OUTPUT(dist/default/production/EMOTIONAL.X.production.elf elf32-avr)
LOAD linker stubs
LOAD data_init

.note.gnu.avr.deviceinfo
                0x0000000000000000       0x40
 .note.gnu.avr.deviceinfo
                0x0000000000000000       0x40 C:/Program Files/Microchip/xc8/v2.20/dfp/xc8/avr/lib/avrxmega3/crtattiny1616.o

.bss.PORTC_IO_PC1_InterruptHandler
                0x0000000000803834        0x2
 .bss.PORTC_IO_PC1_InterruptHandler
                0x0000000000803834        0x2 build/default/production/mcc_generated_files/src/pin_manager.o

.bss.PORTC_SW_MODE_InterruptHandler
                0x0000000000803836        0x2
 .bss.PORTC_SW_MODE_InterruptHandler
                0x0000000000803836        0x2 build/default/production/mcc_generated_files/src/pin_manager.o

.bss.PORTC_IO_PC0_InterruptHandler
                0x0000000000803838        0x2
 .bss.PORTC_IO_PC0_InterruptHandler
                0x0000000000803838        0x2 build/default/production/mcc_generated_files/src/pin_manager.o

.bss.PORTC_SW_POWER_InterruptHandler
                0x000000000080383a        0x2
 .bss.PORTC_SW_POWER_InterruptHandler
                0x000000000080383a        0x2 build/default/production/mcc_generated_files/src/pin_manager.o

.bss.TCB0_CAPT_isr_cb
                0x000000000080383c        0x2
 .bss.TCB0_CAPT_isr_cb
                0x000000000080383c        0x2 build/default/production/mcc_generated_files/src/tcb0.o
                0x000000000080383c                TCB0_CAPT_isr_cb

.bss.u16PwmMode
                0x000000000080383e        0x2
 .bss.u16PwmMode
                0x000000000080383e        0x2 build/default/production/mcc_generated_files/src/tcb0.o
                0x000000000080383e                u16PwmMode

.bss.ADC0_window_cb
                0x0000000000803844        0x2
 .bss.ADC0_window_cb
                0x0000000000803844        0x2 build/default/production/mcc_generated_files/src/adc0.o
                0x0000000000803844                ADC0_window_cb

.bss.u8Temp     0x000000000080384e        0x1
 .bss.u8Temp    0x000000000080384e        0x1 dist/default/production/__pa_temp_29824/main.o
                0x000000000080384e                u8Temp

.bss.i16Temp    0x0000000000803846        0x2
 .bss.i16Temp   0x0000000000803846        0x2 dist/default/production/__pa_temp_29824/main.o
                0x0000000000803846                i16Temp

.bss.RTC_PIT_isr_cb
                0x0000000000803848        0x2
 .bss.RTC_PIT_isr_cb
                0x0000000000803848        0x2 build/default/production/mcc_generated_files/src/rtc.o
                0x0000000000803848                RTC_PIT_isr_cb

.bss.RTC_CMP_isr_cb
                0x000000000080384a        0x2
 .bss.RTC_CMP_isr_cb
                0x000000000080384a        0x2 build/default/production/mcc_generated_files/src/rtc.o
                0x000000000080384a                RTC_CMP_isr_cb

.bss.RTC_OVF_isr_cb
                0x000000000080384c        0x2
 .bss.RTC_OVF_isr_cb
                0x000000000080384c        0x2 build/default/production/mcc_generated_files/src/rtc.o
                0x000000000080384c                RTC_OVF_isr_cb

.text.__vector_13
                0x00000000000000fa      0x464
 .text.__vector_13
                0x00000000000000fa      0x464 build/default/production/mcc_generated_files/src/tcb0.o
                0x00000000000000fa                __vector_13

.text.startup.main
                0x000000000000055e      0x31e
 .text.startup.main
                0x000000000000055e      0x31e dist/default/production/__pa_temp_29824/main.o
                0x000000000000055e                main

.text.PIN_MANAGER_Initialize
                0x000000000000087c       0xbe
 .text.PIN_MANAGER_Initialize
                0x000000000000087c       0xbe build/default/production/mcc_generated_files/src/pin_manager.o
                0x000000000000087c                PIN_MANAGER_Initialize

.text.__vector_6
                0x000000000000093a       0x8a
 .text.__vector_6
                0x000000000000093a       0x8a build/default/production/mcc_generated_files/src/rtc.o
                0x000000000000093a                __vector_6

.text.__vector_5
                0x00000000000009c4       0x80
 .text.__vector_5
                0x00000000000009c4       0x80 build/default/production/mcc_generated_files/src/pin_manager.o
                0x00000000000009c4                __vector_5

.text.__vector_21
                0x0000000000000a44       0x58
 .text.__vector_21
                0x0000000000000a44       0x58 build/default/production/mcc_generated_files/src/adc0.o
                0x0000000000000a44                __vector_21

.text.__vector_7
                0x0000000000000a9c       0x58
 .text.__vector_7
                0x0000000000000a9c       0x58 build/default/production/mcc_generated_files/src/rtc.o
                0x0000000000000a9c                __vector_7

.text.RTC_Initialize
                0x0000000000000af4       0x44
 .text.RTC_Initialize
                0x0000000000000af4       0x44 build/default/production/mcc_generated_files/src/rtc.o
                0x0000000000000af4                RTC_Initialize

.text.CLKCTRL_Initialize
                0x0000000000000b38       0x40
 .text.CLKCTRL_Initialize
                0x0000000000000b38       0x40 build/default/production/mcc_generated_files/mcc.o
                0x0000000000000b38                CLKCTRL_Initialize

.text.__vector_20
                0x0000000000000b78       0x3e
 .text.__vector_20
                0x0000000000000b78       0x3e build/default/production/mcc_generated_files/src/adc0.o
                0x0000000000000b78                __vector_20

.text.PORT_Initialize
                0x0000000000000bb6       0x38
 .text.PORT_Initialize
                0x0000000000000bb6       0x38 build/default/production/mcc_generated_files/src/pin_manager.o
                0x0000000000000bb6                PORT_Initialize

.text.ADC0_Initialize
                0x0000000000000bee       0x2e
 .text.ADC0_Initialize
                0x0000000000000bee       0x2e build/default/production/mcc_generated_files/src/adc0.o
                0x0000000000000bee                ADC0_Initialize

.text.FLASH_WriteEepromByte
                0x0000000000000c1c       0x2c
 .text.FLASH_WriteEepromByte
                0x0000000000000c1c       0x2c build/default/production/mcc_generated_files/src/nvmctrl.o
                0x0000000000000c1c                FLASH_WriteEepromByte

.text.SYSTEM_Initialize
                0x0000000000000c48       0x28
 .text.SYSTEM_Initialize
                0x0000000000000c48       0x28 build/default/production/mcc_generated_files/mcc.o
                0x0000000000000c48                SYSTEM_Initialize

.text.TCB0_Initialize
                0x0000000000000c70       0x26
 .text.TCB0_Initialize
                0x0000000000000c70       0x26 build/default/production/mcc_generated_files/src/tcb0.o
                0x0000000000000c70                TCB0_Initialize

.text.__vector_30
                0x0000000000000c96       0x1e
 .text.__vector_30
                0x0000000000000c96       0x1e build/default/production/mcc_generated_files/src/nvmctrl.o
                0x0000000000000c96                __vector_30

.text.__vector_2
                0x0000000000000cb4       0x1e
 .text.__vector_2
                0x0000000000000cb4       0x1e build/default/production/mcc_generated_files/mcc.o
                0x0000000000000cb4                __vector_2

.text.CPUINT_Initialize
                0x0000000000000cd2       0x1a
 .text.CPUINT_Initialize
                0x0000000000000cd2       0x1a build/default/production/mcc_generated_files/src/cpuint.o
                0x0000000000000cd2                CPUINT_Initialize

.text.BOD_Initialize
                0x0000000000000cec       0x16
 .text.BOD_Initialize
                0x0000000000000cec       0x16 build/default/production/mcc_generated_files/mcc.o
                0x0000000000000cec                BOD_Initialize

.__pa__4        0x0000000000000d02       0x12
 .__pa__4       0x0000000000000d02       0x12 dist/default/production/__pa_temp_29824/main.o
                0x0000000000000d02                .__pa__4

.text.SLPCTRL_Initialize
                0x0000000000000d14        0xe
 .text.SLPCTRL_Initialize
                0x0000000000000d14        0xe build/default/production/mcc_generated_files/mcc.o
                0x0000000000000d14                SLPCTRL_Initialize

.text.WDT_Initialize
                0x0000000000000d22        0xe
 .text.WDT_Initialize
                0x0000000000000d22        0xe build/default/production/mcc_generated_files/mcc.o
                0x0000000000000d22                WDT_Initialize

.__pa__3        0x0000000000000d30        0xe
 .__pa__3       0x0000000000000d30        0xe dist/default/production/__pa_temp_29824/main.o
                0x0000000000000d30                .__pa__3

.text.ADC0_StartConversion
                0x0000000000000d3e        0xc
 .text.ADC0_StartConversion
                0x0000000000000d3e        0xc build/default/production/mcc_generated_files/src/adc0.o
                0x0000000000000d3e                ADC0_StartConversion

.text.ccp_write_spm.constprop.0
                0x0000000000000d4a        0xc
 .text.ccp_write_spm.constprop.0
                0x0000000000000d4a        0xc build/default/production/mcc_generated_files/src/nvmctrl.o

.text.FLASH_Initialize
                0x0000000000000d56        0xc
 .text.FLASH_Initialize
                0x0000000000000d56        0xc build/default/production/mcc_generated_files/src/nvmctrl.o
                0x0000000000000d56                FLASH_Initialize

.text.libgcc    0x0000000000000d62        0xc
 .text.libgcc   0x0000000000000d62        0xc c:/program files/microchip/xc8/v2.20/avr/bin/../lib/gcc/avr/5.4.0/avrxmega3\libgcc.a(_tablejump2.o)
                0x0000000000000d62                __tablejump2__

.text.PORTC_SW_POWER_DefaultInterruptHandler
                0x0000000000000d6e        0xa
 .text.PORTC_SW_POWER_DefaultInterruptHandler
                0x0000000000000d6e        0xa build/default/production/mcc_generated_files/src/pin_manager.o
                0x0000000000000d6e                PORTC_SW_POWER_DefaultInterruptHandler

.__pa__1        0x0000000000000d78        0xa
 .__pa__1       0x0000000000000d78        0xa dist/default/production/__pa_temp_29824/main.o
                0x0000000000000d78                .__pa__1

.__pa__2        0x0000000000000d82        0xa
 .__pa__2       0x0000000000000d82        0xa dist/default/production/__pa_temp_29824/main.o
                0x0000000000000d82                .__pa__2

.text.protected_write_io
                0x0000000000000d8c        0x8
 .text.protected_write_io
                0x0000000000000d8c        0x8 build/default/production/mcc_generated_files/src/protected_io.o
                0x0000000000000d8c                protected_write_io

.text.FLASH_ReadEepromByte
                0x0000000000000d94        0x8
 .text.FLASH_ReadEepromByte
                0x0000000000000d94        0x8 build/default/production/mcc_generated_files/src/nvmctrl.o
                0x0000000000000d94                FLASH_ReadEepromByte

.text.ccp_write_io
                0x0000000000000d9c        0x8
 .text.ccp_write_io
                0x0000000000000d9c        0x8 build/default/production/mcc_generated_files/mcc.o

.__pa__0        0x0000000000000da4        0x8
 .__pa__0       0x0000000000000da4        0x8 dist/default/production/__pa_temp_29824/main.o
                0x0000000000000da4                .__pa__0

.text           0x0000000000000dac        0x4
 .text          0x0000000000000dac        0x4 C:/Program Files/Microchip/xc8/v2.20/dfp/xc8/avr/lib/avrxmega3/crtattiny1616.o
                0x0000000000000dac                __vector_22
                0x0000000000000dac                __vector_28
                0x0000000000000dac                __vector_1
                0x0000000000000dac                __vector_24
                0x0000000000000dac                __vector_12
                0x0000000000000dac                __bad_interrupt
                0x0000000000000dac                __vector_3
                0x0000000000000dac                __vector_23
                0x0000000000000dac                __vector_25
                0x0000000000000dac                __vector_11
                0x0000000000000dac                __vector_17
                0x0000000000000dac                __vector_19
                0x0000000000000dac                __vector_27
                0x0000000000000dac                __vector_4
                0x0000000000000dac                __vector_9
                0x0000000000000dac                __vector_15
                0x0000000000000dac                __vector_29
                0x0000000000000dac                __vector_8
                0x0000000000000dac                __vector_26
                0x0000000000000dac                __vector_14
                0x0000000000000dac                __vector_10
                0x0000000000000dac                __vector_16
                0x0000000000000dac                __vector_18

.text.PORTC_IO_PC1_DefaultInterruptHandler
                0x0000000000000db0        0x2
 .text.PORTC_IO_PC1_DefaultInterruptHandler
                0x0000000000000db0        0x2 build/default/production/mcc_generated_files/src/pin_manager.o
                0x0000000000000db0                PORTC_IO_PC1_DefaultInterruptHandler

.text.PORTC_IO_PC0_DefaultInterruptHandler
                0x0000000000000db2        0x2
 .text.PORTC_IO_PC0_DefaultInterruptHandler
                0x0000000000000db2        0x2 build/default/production/mcc_generated_files/src/pin_manager.o
                0x0000000000000db2                PORTC_IO_PC0_DefaultInterruptHandler

.text.PORTC_SW_MODE_DefaultInterruptHandler
                0x0000000000000db4        0x2
 .text.PORTC_SW_MODE_DefaultInterruptHandler
                0x0000000000000db4        0x2 build/default/production/mcc_generated_files/src/pin_manager.o
                0x0000000000000db4                PORTC_SW_MODE_DefaultInterruptHandler

.data.u16PwmState
                0x0000000000803840        0x2 load address 0x0000000000000db6
 .data.u16PwmState
                0x0000000000803840        0x2 build/default/production/mcc_generated_files/src/tcb0.o
                0x0000000000803840                u16PwmState

.data.u16PwmDutyTarget
                0x0000000000803842        0x2 load address 0x0000000000000db8
 .data.u16PwmDutyTarget
                0x0000000000803842        0x2 build/default/production/mcc_generated_files/src/tcb0.o
                0x0000000000803842                u16PwmDutyTarget
